; ModuleID = 'source-C-CXX/27/1739.c'
source_filename = "source-C-CXX/27/1739.c"
target datalayout = "e-m:e-p270:32:32-p271:32:32-p272:64:64-i64:64-f80:128-n8:16:32:64-S128"
target triple = "x86_64-pc-linux-gnu"

@.str = private unnamed_addr constant [3 x i8] c"%d\00", align 1
@.str.1 = private unnamed_addr constant [4 x i8] c",%d\00", align 1

; Function Attrs: nounwind sspstrong uwtable
define dso_local i32 @main() local_unnamed_addr #0 {
  %1 = alloca [30000 x i8], align 16
  %2 = getelementptr inbounds [30000 x i8], [30000 x i8]* %1, i64 0, i64 0
  call void @llvm.lifetime.start.p0i8(i64 30000, i8* nonnull %2) #4
  %3 = call i32 (i8*, ...) bitcast (i32 (...)* @gets to i32 (i8*, ...)*)(i8* nonnull %2) #4
  br label %4

4:                                                ; preds = %23, %0
  %5 = phi i64 [ %26, %23 ], [ 0, %0 ]
  %6 = phi i32 [ %24, %23 ], [ 0, %0 ]
  %7 = phi i32 [ %25, %23 ], [ 1, %0 ]
  %8 = getelementptr inbounds [30000 x i8], [30000 x i8]* %1, i64 0, i64 %5
  %9 = load i8, i8* %8, align 1, !tbaa !5
  switch i8 %9, label %10 [
    i8 0, label %27
    i8 32, label %12
  ]

10:                                               ; preds = %4
  %11 = add nsw i32 %6, 1
  br label %23

12:                                               ; preds = %4
  %13 = add nsw i64 %5, -1
  %14 = getelementptr inbounds [30000 x i8], [30000 x i8]* %1, i64 0, i64 %13
  %15 = load i8, i8* %14, align 1, !tbaa !5
  %16 = icmp eq i8 %15, 32
  br i1 %16, label %23, label %17

17:                                               ; preds = %12
  %18 = icmp eq i32 %7, 1
  br i1 %18, label %19, label %21

19:                                               ; preds = %17
  %20 = call i32 (i8*, ...) @printf(i8* nonnull dereferenceable(1) getelementptr inbounds ([3 x i8], [3 x i8]* @.str, i64 0, i64 0), i32 %6)
  br label %23

21:                                               ; preds = %17
  %22 = call i32 (i8*, ...) @printf(i8* nonnull dereferenceable(1) getelementptr inbounds ([4 x i8], [4 x i8]* @.str.1, i64 0, i64 0), i32 %6)
  br label %23

23:                                               ; preds = %12, %21, %19, %10
  %24 = phi i32 [ %11, %10 ], [ 0, %19 ], [ 0, %21 ], [ 0, %12 ]
  %25 = phi i32 [ %7, %10 ], [ 0, %19 ], [ 0, %21 ], [ %7, %12 ]
  %26 = add nuw i64 %5, 1
  br label %4, !llvm.loop !8

27:                                               ; preds = %4
  %28 = icmp eq i32 %7, 1
  %29 = select i1 %28, i8* getelementptr inbounds ([3 x i8], [3 x i8]* @.str, i64 0, i64 0), i8* getelementptr inbounds ([4 x i8], [4 x i8]* @.str.1, i64 0, i64 0)
  %30 = call i32 (i8*, ...) @printf(i8* nonnull dereferenceable(1) %29, i32 %6)
  call void @llvm.lifetime.end.p0i8(i64 30000, i8* nonnull %2) #4
  ret i32 0
}

; Function Attrs: argmemonly mustprogress nofree nosync nounwind willreturn
declare void @llvm.lifetime.start.p0i8(i64 immarg, i8* nocapture) #1

declare i32 @gets(...) local_unnamed_addr #2

; Function Attrs: nofree nounwind
declare noundef i32 @printf(i8* nocapture noundef readonly, ...) local_unnamed_addr #3

; Function Attrs: argmemonly mustprogress nofree nosync nounwind willreturn
declare void @llvm.lifetime.end.p0i8(i64 immarg, i8* nocapture) #1


!llvm.module.flags = !{!0, !1, !2, !3}
!llvm.ident = !{!4}

!0 = !{i32 1, !"wchar_size", i32 4}
!1 = !{i32 7, !"PIC Level", i32 2}
!2 = !{i32 7, !"PIE Level", i32 2}
!3 = !{i32 7, !"uwtable", i32 1}
!4 = !{!"clang version 13.0.0"}
!5 = !{!6, !6, i64 0}
!6 = !{!"omnipotent char", !7, i64 0}
!7 = !{!"Simple C/C++ TBAA"}
!8 = distinct !{!8, !9}
!9 = !{!"llvm.loop.mustprogress"}
